; Function Attrs: mustprogress nofree nounwind uwtable
define internal fastcc noundef nonnull ptr @_ZN4llvm16itanium_demangle22AbstractManglingParserINS0_14ManglingParserIN12_GLOBAL__N_116DefaultAllocatorEEES4_E4makeINS0_7NewExprEJRNS0_9NodeArrayERPNS0_4NodeESA_RbbNSB_4PrecEEEESC_DpOT0_(ptr nocapture noundef nonnull align 16 dereferenceable(4928) %0, ptr nocapture noundef nonnull readonly align 8 dereferenceable(16) %1, ptr nocapture noundef nonnull readonly align 8 dereferenceable(8) %2, ptr nocapture noundef nonnull readonly align 8 dereferenceable(16) %3, ptr nocapture noundef nonnull readonly align 1 dereferenceable(1) %4, ptr nocapture noundef nonnull readonly align 1 dereferenceable(1) %5, ptr nocapture noundef nonnull readonly align 4 dereferenceable(4) %6) unnamed_addr #12 align 2 {
  %8 = getelementptr inbounds i8, ptr %0, i64 4912
  %9 = load ptr, ptr %8, align 16
  %10 = getelementptr inbounds nuw i8, ptr %9, i64 8
  %11 = load i64, ptr %10, align 8
  %12 = add i64 %11, -4016
  %13 = icmp ult i64 %12, -4080
  br i1 %13, label %14, label %_ZN12_GLOBAL__N_116DefaultAllocator8makeNodeIN4llvm16itanium_demangle7NewExprEJRNS3_9NodeArrayERPNS3_4NodeES6_RbbNS7_4PrecEEEEPT_DpOT0_.exit

14:                                               ; preds = %7
  %15 = tail call noalias dereferenceable_or_null(4096) ptr @malloc(i64 noundef 4096) #23
  %16 = icmp eq ptr %15, null
  br i1 %16, label %17, label %_ZN12_GLOBAL__N_120BumpPointerAllocator4growEv.exit.i.i

17:                                               ; preds = %14
  tail call void @_ZSt9terminatev() #22
  unreachable

_ZN12_GLOBAL__N_120BumpPointerAllocator4growEv.exit.i.i: ; preds = %14
  store ptr %9, ptr %15, align 8
  %18 = getelementptr inbounds nuw i8, ptr %15, i64 8
  store i64 0, ptr %18, align 8
  store ptr %15, ptr %8, align 16
  br label %_ZN12_GLOBAL__N_116DefaultAllocator8makeNodeIN4llvm16itanium_demangle7NewExprEJRNS3_9NodeArrayERPNS3_4NodeES6_RbbNS7_4PrecEEEEPT_DpOT0_.exit

_ZN12_GLOBAL__N_116DefaultAllocator8makeNodeIN4llvm16itanium_demangle7NewExprEJRNS3_9NodeArrayERPNS3_4NodeES6_RbbNS7_4PrecEEEEPT_DpOT0_.exit: ; preds = %7, %_ZN12_GLOBAL__N_120BumpPointerAllocator4growEv.exit.i.i
  %19 = phi i64 [ 0, %_ZN12_GLOBAL__N_120BumpPointerAllocator4growEv.exit.i.i ], [ %11, %7 ]
  %20 = phi ptr [ %15, %_ZN12_GLOBAL__N_120BumpPointerAllocator4growEv.exit.i.i ], [ %9, %7 ]
  %21 = getelementptr inbounds nuw i8, ptr %20, i64 8
  %22 = add nsw i64 %19, 64
  store i64 %22, ptr %21, align 8
  %23 = load ptr, ptr %8, align 16
  %24 = getelementptr inbounds i8, ptr %23, i64 16
  %25 = getelementptr inbounds nuw i8, ptr %23, i64 8
  %26 = load i64, ptr %25, align 8
  %27 = getelementptr inbounds i8, ptr %24, i64 %26
  %28 = getelementptr inbounds i8, ptr %27, i64 -64
  %.sroa.01.0.copyload.i = load ptr, ptr %1, align 8
  %.sroa.22.0..sroa_idx.i = getelementptr inbounds i8, ptr %1, i64 8
  %.sroa.22.0.copyload.i = load i64, ptr %.sroa.22.0..sroa_idx.i, align 8
  %29 = load ptr, ptr %2, align 8
  %.sroa.0.0.copyload.i = load ptr, ptr %3, align 8
  %.sroa.2.0..sroa_idx.i = getelementptr inbounds i8, ptr %3, i64 8
  %.sroa.2.0.copyload.i = load i64, ptr %.sroa.2.0..sroa_idx.i, align 8
  %30 = load i8, ptr %4, align 1
  %31 = load i8, ptr %5, align 1
  %32 = load i32, ptr %6, align 4
  %33 = and i8 %30, 1
  %34 = and i8 %31, 1
  %35 = getelementptr inbounds i8, ptr %27, i64 -56
  store i8 64, ptr %35, align 8
  %36 = getelementptr inbounds i8, ptr %27, i64 -55
  %37 = trunc i32 %32 to i16
  %38 = load i16, ptr %36, align 1
  %39 = and i16 %37, 63
  %40 = and i16 %38, -4096
  %41 = or disjoint i16 %39, %40
  %42 = or disjoint i16 %41, 1344
  store i16 %42, ptr %36, align 1
  store ptr getelementptr inbounds inrange(-16, 72) (i8, ptr @_ZTVN4llvm16itanium_demangle7NewExprE, i64 16), ptr %28, align 8
  %43 = getelementptr inbounds i8, ptr %27, i64 -48
  store ptr %.sroa.01.0.copyload.i, ptr %43, align 8
  %.sroa.25.0..sroa_idx.i.i = getelementptr inbounds i8, ptr %27, i64 -40
  store i64 %.sroa.22.0.copyload.i, ptr %.sroa.25.0..sroa_idx.i.i, align 8
  %44 = getelementptr inbounds i8, ptr %27, i64 -32
  store ptr %29, ptr %44, align 8
  %45 = getelementptr inbounds i8, ptr %27, i64 -24
  store ptr %.sroa.0.0.copyload.i, ptr %45, align 8
  %.sroa.2.0..sroa_idx.i.i = getelementptr inbounds i8, ptr %27, i64 -16
  store i64 %.sroa.2.0.copyload.i, ptr %.sroa.2.0..sroa_idx.i.i, align 8
  %46 = getelementptr inbounds i8, ptr %27, i64 -8
  store i8 %33, ptr %46, align 8
  %47 = getelementptr inbounds i8, ptr %27, i64 -7
  store i8 %34, ptr %47, align 1
  ret ptr %28
}